; Function Attrs: nounwind uwtable
define float @Abc_BufComputeDep(ptr noundef readonly captures(none) %0, ptr noundef %1) local_unnamed_addr #2 {
  %3 = getelementptr i8, ptr %1, i64 44
  %.val2232 = load i32, ptr %3, align 4, !tbaa !60
  %4 = icmp sgt i32 %.val2232, 0
  br i1 %4, label %.lr.ph, label %.critedge

.lr.ph:                                           ; preds = %2
  %5 = getelementptr i8, ptr %1, i64 48
  %6 = getelementptr inbounds nuw i8, ptr %0, i64 24
  %7 = getelementptr i8, ptr %0, i64 48
  %8 = getelementptr i8, ptr %0, i64 32
  %.pre = load ptr, ptr %6, align 8, !tbaa !77
  br label %9

9:                                                ; preds = %.lr.ph, %42
  %10 = phi ptr [ %.pre, %.lr.ph ], [ %43, %42 ]
  %indvars.iv = phi i64 [ 0, %.lr.ph ], [ %indvars.iv.next, %42 ]
  %.034 = phi float [ -1.000000e+09, %.lr.ph ], [ %.1, %42 ]
  %.val23 = load ptr, ptr %1, align 8, !tbaa !31
  %.val24 = load ptr, ptr %5, align 8, !tbaa !62
  %11 = getelementptr i8, ptr %.val23, i64 32
  %.val23.val = load ptr, ptr %11, align 8, !tbaa !3
  %12 = getelementptr i8, ptr %.val23.val, i64 8
  %.val23.val.val = load ptr, ptr %12, align 8, !tbaa !26
  %13 = getelementptr inbounds nuw i32, ptr %.val24, i64 %indvars.iv
  %14 = load i32, ptr %13, align 4, !tbaa !33
  %15 = sext i32 %14 to i64
  %16 = getelementptr inbounds ptr, ptr %.val23.val.val, i64 %15
  %17 = load ptr, ptr %16, align 8, !tbaa !27
  %18 = getelementptr i8, ptr %17, i64 16
  %.val = load i32, ptr %18, align 8, !tbaa !34
  %19 = getelementptr i8, ptr %10, i64 8
  %.val21 = load ptr, ptr %19, align 8, !tbaa !45
  %20 = sext i32 %.val to i64
  %21 = getelementptr inbounds i32, ptr %.val21, i64 %20
  %22 = load i32, ptr %21, align 4, !tbaa !33
  %23 = icmp eq i32 %22, -1000000000
  br i1 %23, label %42, label %24

24:                                               ; preds = %9
  %.val28 = load ptr, ptr %7, align 8, !tbaa !84
  %25 = getelementptr i8, ptr %.val28, i64 8
  %.val28.val = load ptr, ptr %25, align 8, !tbaa !45
  %26 = getelementptr inbounds i32, ptr %.val28.val, i64 %20
  %27 = load i32, ptr %26, align 4, !tbaa !33
  %28 = tail call i32 @Abc_NodeFindFanin(ptr noundef nonnull %17, ptr noundef nonnull %1) #17
  %.val25 = load ptr, ptr %6, align 8, !tbaa !77
  %.val26 = load ptr, ptr %8, align 8, !tbaa !82
  %.val27 = load i32, ptr %18, align 8, !tbaa !34
  %29 = getelementptr i8, ptr %.val25, i64 8
  %.val25.val = load ptr, ptr %29, align 8, !tbaa !45
  %30 = getelementptr i8, ptr %.val26, i64 8
  %.val26.val = load ptr, ptr %30, align 8, !tbaa !45
  %31 = sext i32 %.val27 to i64
  %32 = getelementptr inbounds i32, ptr %.val25.val, i64 %31
  %33 = load i32, ptr %32, align 4, !tbaa !33
  %34 = add nsw i32 %33, %28
  %35 = sext i32 %34 to i64
  %36 = getelementptr inbounds i32, ptr %.val26.val, i64 %35
  %37 = load i32, ptr %36, align 4, !tbaa !33
  %38 = add nsw i32 %37, %27
  %39 = sitofp i32 %38 to float
  %40 = fcmp olt float %.034, %39
  br i1 %40, label %41, label %42

41:                                               ; preds = %24
  br label %42

42:                                               ; preds = %24, %41, %9
  %43 = phi ptr [ %10, %9 ], [ %.val25, %41 ], [ %.val25, %24 ]
  %.1 = phi float [ %.034, %9 ], [ %39, %41 ], [ %.034, %24 ]
  %indvars.iv.next = add nuw nsw i64 %indvars.iv, 1
  %.val22 = load i32, ptr %3, align 4, !tbaa !60
  %44 = sext i32 %.val22 to i64
  %45 = icmp slt i64 %indvars.iv.next, %44
  br i1 %45, label %9, label %.critedge, !llvm.loop !85

.critedge:                                        ; preds = %42, %2
  %.0.lcssa = phi float [ -1.000000e+09, %2 ], [ %.1, %42 ]
  %46 = fptosi float %.0.lcssa to i32
  %47 = getelementptr i8, ptr %0, i64 48
  %.val30 = load ptr, ptr %47, align 8, !tbaa !84
  %48 = getelementptr i8, ptr %1, i64 16
  %.val31 = load i32, ptr %48, align 8, !tbaa !34
  %49 = getelementptr i8, ptr %.val30, i64 8
  %.val30.val = load ptr, ptr %49, align 8, !tbaa !45
  %50 = sext i32 %.val31 to i64
  %51 = getelementptr inbounds i32, ptr %.val30.val, i64 %50
  store i32 %46, ptr %51, align 4, !tbaa !33
  ret float %.0.lcssa
}